target datalayout = "e-m:e-p270:32:32-p271:32:32-p272:64:64-i64:64-i128:128-f80:128-n8:16:32:64-S128"
target triple = "x86_64-pc-linux-gnu"

%"class.duckdb_apache::thrift::TBase" = type { ptr }
%"class.duckdb_parquet::TimeUnit" = type <{ %"class.duckdb_apache::thrift::TBase", %"class.duckdb_parquet::MilliSeconds", %"class.duckdb_parquet::MicroSeconds", %"class.duckdb_parquet::NanoSeconds", %"struct.duckdb_parquet::_TimeUnit__isset", [7 x i8] }>
%"class.duckdb_parquet::MilliSeconds" = type { %"class.duckdb_apache::thrift::TBase" }
%"class.duckdb_parquet::MicroSeconds" = type { %"class.duckdb_apache::thrift::TBase" }
%"class.duckdb_parquet::NanoSeconds" = type { %"class.duckdb_apache::thrift::TBase" }
%"struct.duckdb_parquet::_TimeUnit__isset" = type { i8 }

; Function Attrs: inlinehint mustprogress nounwind uwtable
define linkonce_odr void @_ZSt4swapIN14duckdb_parquet16_TimeUnit__issetEENSt9enable_ifIXsr6__and_ISt6__not_ISt15__is_tuple_likeIT_EESt21is_move_constructibleIS5_ESt18is_move_assignableIS5_EEE5valueEvE4typeERS5_SE_(ptr noundef nonnull align 1 dereferenceable(1) %0, ptr noundef nonnull align 1 dereferenceable(1) %1) #7 comdat {
  %3 = alloca ptr, align 8
  %4 = alloca ptr, align 8
  %5 = alloca %"struct.duckdb_parquet::_TimeUnit__isset", align 1
  store ptr %0, ptr %3, align 8, !tbaa !179
  store ptr %1, ptr %4, align 8, !tbaa !179
  call void @llvm.lifetime.start.p0(i64 1, ptr %5) #3
  %6 = load ptr, ptr %3, align 8, !tbaa !179
  call void @llvm.memcpy.p0.p0.i64(ptr align 1 %5, ptr align 1 %6, i64 1, i1 false), !tbaa.struct !111
  %7 = load ptr, ptr %4, align 8, !tbaa !179
  %8 = load ptr, ptr %3, align 8, !tbaa !179
  call void @llvm.memcpy.p0.p0.i64(ptr align 1 %8, ptr align 1 %7, i64 1, i1 false), !tbaa.struct !111
  %9 = load ptr, ptr %4, align 8, !tbaa !179
  call void @llvm.memcpy.p0.p0.i64(ptr align 1 %9, ptr align 1 %5, i64 1, i1 false), !tbaa.struct !111
  call void @llvm.lifetime.end.p0(i64 1, ptr %5) #3
  ret void
}

; Function Attrs: mustprogress nounwind uwtable
define void @_ZN14duckdb_parquet4swapERNS_11NanoSecondsES1_(ptr noundef nonnull align 8 dereferenceable(8) %0, ptr noundef nonnull align 8 dereferenceable(8) %1) #1 {
  %3 = alloca ptr, align 8
  %4 = alloca ptr, align 8
  store ptr %0, ptr %3, align 8, !tbaa !174
  store ptr %1, ptr %4, align 8, !tbaa !174
  ret void
}

; Function Attrs: mustprogress nounwind uwtable
define void @_ZN14duckdb_parquet4swapERNS_12MicroSecondsES1_(ptr noundef nonnull align 8 dereferenceable(8) %0, ptr noundef nonnull align 8 dereferenceable(8) %1) #1 {
  %3 = alloca ptr, align 8
  %4 = alloca ptr, align 8
  store ptr %0, ptr %3, align 8, !tbaa !171
  store ptr %1, ptr %4, align 8, !tbaa !171
  ret void
}

; Function Attrs: mustprogress nounwind uwtable
define void @_ZN14duckdb_parquet4swapERNS_12MilliSecondsES1_(ptr noundef nonnull align 8 dereferenceable(8) %0, ptr noundef nonnull align 8 dereferenceable(8) %1) #1 {
  %3 = alloca ptr, align 8
  %4 = alloca ptr, align 8
  store ptr %0, ptr %3, align 8, !tbaa !168
  store ptr %1, ptr %4, align 8, !tbaa !168
  ret void
}

; Function Attrs: mustprogress nounwind uwtable
define void @_ZN14duckdb_parquet4swapERNS_8TimeUnitES1_(ptr noundef nonnull align 8 dereferenceable(33) %0, ptr noundef nonnull align 8 dereferenceable(33) %1) #1 {
  %3 = alloca ptr, align 8
  %4 = alloca ptr, align 8
  store ptr %0, ptr %3, align 8, !tbaa !177
  store ptr %1, ptr %4, align 8, !tbaa !177
  %5 = load ptr, ptr %3, align 8, !tbaa !177
  %6 = getelementptr inbounds nuw %"class.duckdb_parquet::TimeUnit", ptr %5, i32 0, i32 1
  %7 = load ptr, ptr %4, align 8, !tbaa !177
  %8 = getelementptr inbounds nuw %"class.duckdb_parquet::TimeUnit", ptr %7, i32 0, i32 1
  call void @_ZN14duckdb_parquet4swapERNS_12MilliSecondsES1_(ptr noundef nonnull align 8 dereferenceable(8) %6, ptr noundef nonnull align 8 dereferenceable(8) %8)
  %9 = load ptr, ptr %3, align 8, !tbaa !177
  %10 = getelementptr inbounds nuw %"class.duckdb_parquet::TimeUnit", ptr %9, i32 0, i32 2
  %11 = load ptr, ptr %4, align 8, !tbaa !177
  %12 = getelementptr inbounds nuw %"class.duckdb_parquet::TimeUnit", ptr %11, i32 0, i32 2
  call void @_ZN14duckdb_parquet4swapERNS_12MicroSecondsES1_(ptr noundef nonnull align 8 dereferenceable(8) %10, ptr noundef nonnull align 8 dereferenceable(8) %12)
  %13 = load ptr, ptr %3, align 8, !tbaa !177
  %14 = getelementptr inbounds nuw %"class.duckdb_parquet::TimeUnit", ptr %13, i32 0, i32 3
  %15 = load ptr, ptr %4, align 8, !tbaa !177
  %16 = getelementptr inbounds nuw %"class.duckdb_parquet::TimeUnit", ptr %15, i32 0, i32 3
  call void @_ZN14duckdb_parquet4swapERNS_11NanoSecondsES1_(ptr noundef nonnull align 8 dereferenceable(8) %14, ptr noundef nonnull align 8 dereferenceable(8) %16)
  %17 = load ptr, ptr %3, align 8, !tbaa !177
  %18 = getelementptr inbounds nuw %"class.duckdb_parquet::TimeUnit", ptr %17, i32 0, i32 4
  %19 = load ptr, ptr %4, align 8, !tbaa !177
  %20 = getelementptr inbounds nuw %"class.duckdb_parquet::TimeUnit", ptr %19, i32 0, i32 4
  call void @_ZSt4swapIN14duckdb_parquet16_TimeUnit__issetEENSt9enable_ifIXsr6__and_ISt6__not_ISt15__is_tuple_likeIT_EESt21is_move_constructibleIS5_ESt18is_move_assignableIS5_EEE5valueEvE4typeERS5_SE_(ptr noundef nonnull align 1 dereferenceable(1) %18, ptr noundef nonnull align 1 dereferenceable(1) %20) #3
  ret void
}