; Function Attrs: mustprogress nofree norecurse nosync nounwind willreturn memory(argmem: readwrite) uwtable
define void @_ZN14duckdb_parquet4swapERNS_8TimeUnitES1_(ptr noundef nonnull align 8 captures(none) dereferenceable(33) %0, ptr noundef nonnull align 8 captures(none) dereferenceable(33) %1) local_unnamed_addr #10 {
  %3 = getelementptr inbounds nuw i8, ptr %0, i64 32
  %4 = getelementptr inbounds nuw i8, ptr %1, i64 32
  %.sroa.0.0.copyload.i = load i8, ptr %3, align 8, !tbaa !38
  %5 = load i8, ptr %4, align 8, !tbaa !38
  store i8 %5, ptr %3, align 8, !tbaa !38
  store i8 %.sroa.0.0.copyload.i, ptr %4, align 8, !tbaa !38
  ret void
}